target datalayout = "e-m:e-p270:32:32-p271:32:32-p272:64:64-i64:64-i128:128-f80:128-n8:16:32:64-S128"
target triple = "x86_64-pc-linux-gnu"

@duckdb_je_opt_abort = external global i8, align 1
@.str.7 = private unnamed_addr constant [35 x i8] c"<jemalloc>: Error in munmap(): %s\0A\00", align 1

; Function Attrs: inlinehint nounwind uwtable
define internal i32 @get_errno() #6 {
  %1 = call ptr @__errno_location() #14
  %2 = load i32, ptr %1, align 4, !tbaa !15
  ret i32 %2
}

; Function Attrs: nounwind uwtable
define internal void @os_pages_unmap(ptr noundef %0, i64 noundef %1) #0 {
  %3 = alloca ptr, align 8
  %4 = alloca i64, align 8
  %5 = alloca [64 x i8], align 16
  store ptr %0, ptr %3, align 8, !tbaa !3
  store i64 %1, ptr %4, align 8, !tbaa !7
  br label %6

6:                                                ; preds = %2
  br label %7

7:                                                ; preds = %6
  br label %8

8:                                                ; preds = %7
  br label %9

9:                                                ; preds = %8
  %10 = load ptr, ptr %3, align 8, !tbaa !3
  %11 = load i64, ptr %4, align 8, !tbaa !7
  %12 = call i32 @munmap(ptr noundef %10, i64 noundef %11) #11
  %13 = icmp eq i32 %12, -1
  br i1 %13, label %14, label %23

14:                                               ; preds = %9
  call void @llvm.lifetime.start.p0(i64 64, ptr %5) #11
  %15 = call i32 @get_errno()
  %16 = getelementptr inbounds [64 x i8], ptr %5, i64 0, i64 0
  %17 = call i32 @duckdb_je_buferror(i32 noundef %15, ptr noundef %16, i64 noundef 64)
  %18 = getelementptr inbounds [64 x i8], ptr %5, i64 0, i64 0
  call void (ptr, ...) @duckdb_je_malloc_printf(ptr noundef @.str.7, ptr noundef %18)
  %19 = load i8, ptr @duckdb_je_opt_abort, align 1, !tbaa !11, !range !13, !noundef !14
  %20 = trunc i8 %19 to i1
  br i1 %20, label %21, label %22

21:                                               ; preds = %14
  call void @abort() #12
  unreachable

22:                                               ; preds = %14
  call void @llvm.lifetime.end.p0(i64 64, ptr %5) #11
  br label %23

23:                                               ; preds = %22, %9
  ret void
}

; Function Attrs: nounwind uwtable
define void @duckdb_je_pages_unmap(ptr noundef %0, i64 noundef %1) #0 {
  %3 = alloca ptr, align 8
  %4 = alloca i64, align 8
  store ptr %0, ptr %3, align 8, !tbaa !3
  store i64 %1, ptr %4, align 8, !tbaa !7
  br label %5

5:                                                ; preds = %2
  br label %6

6:                                                ; preds = %5
  br label %7

7:                                                ; preds = %6
  br label %8

8:                                                ; preds = %7
  %9 = load ptr, ptr %3, align 8, !tbaa !3
  %10 = load i64, ptr %4, align 8, !tbaa !7
  call void @os_pages_unmap(ptr noundef %9, i64 noundef %10)
  ret void
}